; ModuleID = '50/1191.cpp'
source_filename = "50/1191.cpp"
target datalayout = "e-m:e-p270:32:32-p271:32:32-p272:64:64-i64:64-f80:128-n8:16:32:64-S128"
target triple = "x86_64-pc-linux-gnu"

%"class.std::ios_base::Init" = type { i8 }
%"class.std::basic_istream" = type { i32 (...)**, i64, %"class.std::basic_ios" }
%"class.std::basic_ios" = type { %"class.std::ios_base", %"class.std::basic_ostream"*, i8, i8, %"class.std::basic_streambuf"*, %"class.std::ctype"*, %"class.std::num_put"*, %"class.std::num_get"* }
%"class.std::ios_base" = type { i32 (...)**, i64, i64, i32, i32, i32, %"struct.std::ios_base::_Callback_list"*, %"struct.std::ios_base::_Words", [8 x %"struct.std::ios_base::_Words"], i32, %"struct.std::ios_base::_Words"*, %"class.std::locale" }
%"struct.std::ios_base::_Callback_list" = type { %"struct.std::ios_base::_Callback_list"*, void (i32, %"class.std::ios_base"*, i32)*, i32, i32 }
%"struct.std::ios_base::_Words" = type { i8*, i64 }
%"class.std::locale" = type { %"class.std::locale::_Impl"* }
%"class.std::locale::_Impl" = type { i32, %"class.std::locale::facet"**, i64, %"class.std::locale::facet"**, i8** }
%"class.std::locale::facet" = type <{ i32 (...)**, i32, [4 x i8] }>
%"class.std::basic_ostream" = type { i32 (...)**, %"class.std::basic_ios" }
%"class.std::basic_streambuf" = type { i32 (...)**, i8*, i8*, i8*, i8*, i8*, i8*, %"class.std::locale" }
%"class.std::ctype" = type <{ %"class.std::locale::facet.base", [4 x i8], %struct.__locale_struct*, i8, [7 x i8], i32*, i32*, i16*, i8, [256 x i8], [256 x i8], i8, [6 x i8] }>
%"class.std::locale::facet.base" = type <{ i32 (...)**, i32 }>
%struct.__locale_struct = type { [13 x %struct.__locale_data*], i16*, i32*, i32*, [13 x i8*] }
%struct.__locale_data = type opaque
%"class.std::num_put" = type { %"class.std::locale::facet.base", [4 x i8] }
%"class.std::num_get" = type { %"class.std::locale::facet.base", [4 x i8] }

@_ZStL8__ioinit = internal global %"class.std::ios_base::Init" zeroinitializer, align 1
@__dso_handle = external hidden global i8
@_ZSt3cin = external dso_local global %"class.std::basic_istream", align 8
@_ZSt4cout = external dso_local global %"class.std::basic_ostream", align 8
@llvm.global_ctors = appending global [1 x { i32, void ()*, i8* }] [{ i32, void ()*, i8* } { i32 65535, void ()* @_GLOBAL__sub_I_1191.cpp, i8* null }]

; Function Attrs: noinline uwtable
define internal void @__cxx_global_var_init() #0 section ".text.startup" {
  call void @_ZNSt8ios_base4InitC1Ev(%"class.std::ios_base::Init"* @_ZStL8__ioinit)
  %1 = call i32 @__cxa_atexit(void (i8*)* bitcast (void (%"class.std::ios_base::Init"*)* @_ZNSt8ios_base4InitD1Ev to void (i8*)*), i8* getelementptr inbounds (%"class.std::ios_base::Init", %"class.std::ios_base::Init"* @_ZStL8__ioinit, i32 0, i32 0), i8* @__dso_handle) #3
  ret void
}

declare dso_local void @_ZNSt8ios_base4InitC1Ev(%"class.std::ios_base::Init"*) unnamed_addr #1

; Function Attrs: nounwind
declare dso_local void @_ZNSt8ios_base4InitD1Ev(%"class.std::ios_base::Init"*) unnamed_addr #2

; Function Attrs: nounwind
declare dso_local i32 @__cxa_atexit(void (i8*)*, i8*, i8*) #3

; Function Attrs: noinline norecurse uwtable
define dso_local i32 @main() #4 {
  %1 = alloca i32, align 4
  %2 = alloca i32, align 4
  %3 = alloca [12 x i32], align 16
  %4 = alloca [12 x i32], align 16
  %5 = alloca i32, align 4
  store i32 0, i32* %1, align 4
  %6 = call dereferenceable(280) %"class.std::basic_istream"* @_ZNSirsERi(%"class.std::basic_istream"* @_ZSt3cin, i32* dereferenceable(4) %5)
  %7 = getelementptr inbounds [12 x i32], [12 x i32]* %3, i64 0, i64 0
  store i32 13, i32* %7, align 16
  %8 = getelementptr inbounds [12 x i32], [12 x i32]* %3, i64 0, i64 0
  %9 = load i32, i32* %8, align 16
  %10 = add nsw i32 %9, 31
  %11 = getelementptr inbounds [12 x i32], [12 x i32]* %3, i64 0, i64 1
  store i32 %10, i32* %11, align 4
  %12 = getelementptr inbounds [12 x i32], [12 x i32]* %3, i64 0, i64 1
  %13 = load i32, i32* %12, align 4
  %14 = add nsw i32 %13, 28
  %15 = getelementptr inbounds [12 x i32], [12 x i32]* %3, i64 0, i64 2
  store i32 %14, i32* %15, align 8
  %16 = getelementptr inbounds [12 x i32], [12 x i32]* %3, i64 0, i64 2
  %17 = load i32, i32* %16, align 8
  %18 = add nsw i32 %17, 31
  %19 = getelementptr inbounds [12 x i32], [12 x i32]* %3, i64 0, i64 3
  store i32 %18, i32* %19, align 4
  %20 = getelementptr inbounds [12 x i32], [12 x i32]* %3, i64 0, i64 3
  %21 = load i32, i32* %20, align 4
  %22 = add nsw i32 %21, 30
  %23 = getelementptr inbounds [12 x i32], [12 x i32]* %3, i64 0, i64 4
  store i32 %22, i32* %23, align 16
  %24 = getelementptr inbounds [12 x i32], [12 x i32]* %3, i64 0, i64 4
  %25 = load i32, i32* %24, align 16
  %26 = add nsw i32 %25, 31
  %27 = getelementptr inbounds [12 x i32], [12 x i32]* %3, i64 0, i64 5
  store i32 %26, i32* %27, align 4
  %28 = getelementptr inbounds [12 x i32], [12 x i32]* %3, i64 0, i64 5
  %29 = load i32, i32* %28, align 4
  %30 = add nsw i32 %29, 30
  %31 = getelementptr inbounds [12 x i32], [12 x i32]* %3, i64 0, i64 6
  store i32 %30, i32* %31, align 8
  %32 = getelementptr inbounds [12 x i32], [12 x i32]* %3, i64 0, i64 6
  %33 = load i32, i32* %32, align 8
  %34 = add nsw i32 %33, 31
  %35 = getelementptr inbounds [12 x i32], [12 x i32]* %3, i64 0, i64 7
  store i32 %34, i32* %35, align 4
  %36 = getelementptr inbounds [12 x i32], [12 x i32]* %3, i64 0, i64 7
  %37 = load i32, i32* %36, align 4
  %38 = add nsw i32 %37, 31
  %39 = getelementptr inbounds [12 x i32], [12 x i32]* %3, i64 0, i64 8
  store i32 %38, i32* %39, align 16
  %40 = getelementptr inbounds [12 x i32], [12 x i32]* %3, i64 0, i64 8
  %41 = load i32, i32* %40, align 16
  %42 = add nsw i32 %41, 30
  %43 = getelementptr inbounds [12 x i32], [12 x i32]* %3, i64 0, i64 9
  store i32 %42, i32* %43, align 4
  %44 = getelementptr inbounds [12 x i32], [12 x i32]* %3, i64 0, i64 9
  %45 = load i32, i32* %44, align 4
  %46 = add nsw i32 %45, 31
  %47 = getelementptr inbounds [12 x i32], [12 x i32]* %3, i64 0, i64 10
  store i32 %46, i32* %47, align 8
  %48 = getelementptr inbounds [12 x i32], [12 x i32]* %3, i64 0, i64 10
  %49 = load i32, i32* %48, align 8
  %50 = add nsw i32 %49, 30
  %51 = getelementptr inbounds [12 x i32], [12 x i32]* %3, i64 0, i64 11
  store i32 %50, i32* %51, align 4
  store i32 0, i32* %2, align 4
  br label %52

52:                                               ; preds = %67, %0
  %53 = load i32, i32* %2, align 4
  %54 = icmp slt i32 %53, 12
  br i1 %54, label %55, label %70

55:                                               ; preds = %52
  %56 = load i32, i32* %2, align 4
  %57 = sext i32 %56 to i64
  %58 = getelementptr inbounds [12 x i32], [12 x i32]* %3, i64 0, i64 %57
  %59 = load i32, i32* %58, align 4
  %60 = load i32, i32* %5, align 4
  %61 = add nsw i32 %59, %60
  %62 = sub nsw i32 %61, 1
  %63 = srem i32 %62, 7
  %64 = load i32, i32* %2, align 4
  %65 = sext i32 %64 to i64
  %66 = getelementptr inbounds [12 x i32], [12 x i32]* %4, i64 0, i64 %65
  store i32 %63, i32* %66, align 4
  br label %67

67:                                               ; preds = %55
  %68 = load i32, i32* %2, align 4
  %69 = add nsw i32 %68, 1
  store i32 %69, i32* %2, align 4
  br label %52

70:                                               ; preds = %52
  store i32 0, i32* %2, align 4
  br label %71

71:                                               ; preds = %86, %70
  %72 = load i32, i32* %2, align 4
  %73 = icmp slt i32 %72, 12
  br i1 %73, label %74, label %89

74:                                               ; preds = %71
  %75 = load i32, i32* %2, align 4
  %76 = sext i32 %75 to i64
  %77 = getelementptr inbounds [12 x i32], [12 x i32]* %4, i64 0, i64 %76
  %78 = load i32, i32* %77, align 4
  %79 = icmp eq i32 %78, 5
  br i1 %79, label %80, label %85

80:                                               ; preds = %74
  %81 = load i32, i32* %2, align 4
  %82 = add nsw i32 %81, 1
  %83 = call dereferenceable(272) %"class.std::basic_ostream"* @_ZNSolsEi(%"class.std::basic_ostream"* @_ZSt4cout, i32 %82)
  %84 = call dereferenceable(272) %"class.std::basic_ostream"* @_ZNSolsEPFRSoS_E(%"class.std::basic_ostream"* %83, %"class.std::basic_ostream"* (%"class.std::basic_ostream"*)* @_ZSt4endlIcSt11char_traitsIcEERSt13basic_ostreamIT_T0_ES6_)
  br label %85

85:                                               ; preds = %80, %74
  br label %86

86:                                               ; preds = %85
  %87 = load i32, i32* %2, align 4
  %88 = add nsw i32 %87, 1
  store i32 %88, i32* %2, align 4
  br label %71

89:                                               ; preds = %71
  ret i32 0
}

declare dso_local dereferenceable(280) %"class.std::basic_istream"* @_ZNSirsERi(%"class.std::basic_istream"*, i32* dereferenceable(4)) #1

declare dso_local dereferenceable(272) %"class.std::basic_ostream"* @_ZNSolsEi(%"class.std::basic_ostream"*, i32) #1

declare dso_local dereferenceable(272) %"class.std::basic_ostream"* @_ZNSolsEPFRSoS_E(%"class.std::basic_ostream"*, %"class.std::basic_ostream"* (%"class.std::basic_ostream"*)*) #1

declare dso_local dereferenceable(272) %"class.std::basic_ostream"* @_ZSt4endlIcSt11char_traitsIcEERSt13basic_ostreamIT_T0_ES6_(%"class.std::basic_ostream"* dereferenceable(272)) #1

; Function Attrs: noinline uwtable
define internal void @_GLOBAL__sub_I_1191.cpp() #0 section ".text.startup" {
  call void @__cxx_global_var_init()
  ret void
}


!llvm.module.flags = !{!0}
!llvm.ident = !{!1}

!0 = !{i32 1, !"wchar_size", i32 4}
!1 = !{!"clang version 10.0.0-4ubuntu1 "}
